; Function Attrs: mustprogress uwtable
define hidden noundef i32 @_ZN4lean2ir13expr_box_typeERKNS_10object_refE(ptr noundef nonnull readonly align 8 captures(none) dereferenceable(8) %0) local_unnamed_addr #0 personality ptr @__gxx_personality_v0 {
  %2 = load ptr, ptr %0, align 8, !tbaa !6
  %3 = getelementptr inbounds nuw i8, ptr %2, i64 8
  %4 = load ptr, ptr %3, align 8, !tbaa !10
  %5 = ptrtoint ptr %4 to i64
  %6 = and i64 %5, 1
  %.not.i.i = icmp eq i64 %6, 0
  br i1 %.not.i.i, label %7, label %_ZN4lean2ir14cnstr_get_typeERKNS_10object_refEj.exit

7:                                                ; preds = %1
  %8 = tail call ptr @__cxa_allocate_exception(i64 40) #24
  invoke void @_ZN4lean9exceptionC2EPKc(ptr noundef nonnull align 8 dereferenceable(40) %8, ptr noundef nonnull @.str)
          to label %9 unwind label %10

9:                                                ; preds = %7
  tail call void @__cxa_throw(ptr nonnull %8, ptr nonnull @_ZTIN4lean9exceptionE, ptr nonnull @_ZN4lean9throwableD2Ev) #25
  unreachable

10:                                               ; preds = %7
  %11 = landingpad { ptr, i32 }
          cleanup
  tail call void @__cxa_free_exception(ptr nonnull %8) #24
  resume { ptr, i32 } %11

_ZN4lean2ir14cnstr_get_typeERKNS_10object_refEj.exit: ; preds = %1
  %12 = lshr i64 %5, 1
  %13 = trunc i64 %12 to i32
  ret i32 %13
}